; Function Attrs: mustprogress nofree norecurse nosync nounwind willreturn memory(read, inaccessiblemem: none) uwtable
define internal fastcc noundef zeroext i1 @_ZNK12_GLOBAL__N_119elim_uncnstr_tactic6rw_cfg7uncnstrEP4expr(ptr readonly captures(address) %.8.val.0.val, i32 %.8.val.8.val, ptr readonly captures(none) %.16.val, ptr noundef readonly captures(address) %0) unnamed_addr #19 align 2 {
  %2 = getelementptr inbounds nuw i8, ptr %0, i64 12
  %3 = load i32, ptr %2, align 4, !tbaa !226
  %4 = add i32 %.8.val.8.val, -1
  %5 = and i32 %3, %4
  %6 = zext i32 %5 to i64
  %7 = getelementptr inbounds nuw %class.obj_hash_entry, ptr %.8.val.0.val, i64 %6
  %8 = zext i32 %.8.val.8.val to i64
  %9 = getelementptr inbounds nuw %class.obj_hash_entry, ptr %.8.val.0.val, i64 %8
  %.not35.i.i = icmp eq i32 %5, %.8.val.8.val
  br i1 %.not35.i.i, label %.preheader.i.i, label %.lr.ph.i.i

.preheader.i.i:                                   ; preds = %16, %1
  %.not2737.i.i = icmp eq i32 %5, 0
  br i1 %.not2737.i.i, label %_ZNK14core_hashtableI14obj_hash_entryI4exprE12obj_ptr_hashIS1_E6ptr_eqIS1_EE8containsERKPS1_.exit.thread, label %.lr.ph39.i.i

.lr.ph.i.i:                                       ; preds = %1, %16
  %.036.i.i = phi ptr [ %17, %16 ], [ %7, %1 ]
  %10 = load ptr, ptr %.036.i.i, align 8, !tbaa !17
  %magicptr30.i.i = ptrtoint ptr %10 to i64
  switch i64 %magicptr30.i.i, label %11 [
    i64 0, label %_ZNK14core_hashtableI14obj_hash_entryI4exprE12obj_ptr_hashIS1_E6ptr_eqIS1_EE8containsERKPS1_.exit.thread
    i64 1, label %16
  ]

11:                                               ; preds = %.lr.ph.i.i
  %12 = getelementptr inbounds nuw i8, ptr %10, i64 12
  %13 = load i32, ptr %12, align 4, !tbaa !226
  %14 = icmp eq i32 %13, %3
  %15 = icmp eq ptr %10, %0
  %or.cond.i.i = and i1 %15, %14
  br i1 %or.cond.i.i, label %_ZNK14core_hashtableI14obj_hash_entryI4exprE12obj_ptr_hashIS1_E6ptr_eqIS1_EE8containsERKPS1_.exit, label %16

16:                                               ; preds = %11, %.lr.ph.i.i
  %17 = getelementptr inbounds nuw i8, ptr %.036.i.i, i64 8
  %.not.i.i = icmp eq ptr %17, %9
  br i1 %.not.i.i, label %.preheader.i.i, label %.lr.ph.i.i, !llvm.loop !418

.lr.ph39.i.i:                                     ; preds = %.preheader.i.i, %24
  %.138.i.i = phi ptr [ %25, %24 ], [ %.8.val.0.val, %.preheader.i.i ]
  %18 = load ptr, ptr %.138.i.i, align 8, !tbaa !17
  %magicptr32.i.i = ptrtoint ptr %18 to i64
  switch i64 %magicptr32.i.i, label %19 [
    i64 0, label %_ZNK14core_hashtableI14obj_hash_entryI4exprE12obj_ptr_hashIS1_E6ptr_eqIS1_EE8containsERKPS1_.exit.thread
    i64 1, label %24
  ]

19:                                               ; preds = %.lr.ph39.i.i
  %20 = getelementptr inbounds nuw i8, ptr %18, i64 12
  %21 = load i32, ptr %20, align 4, !tbaa !226
  %22 = icmp eq i32 %21, %3
  %23 = icmp eq ptr %18, %0
  %or.cond31.i.i = and i1 %23, %22
  br i1 %or.cond31.i.i, label %_ZNK14core_hashtableI14obj_hash_entryI4exprE12obj_ptr_hashIS1_E6ptr_eqIS1_EE8containsERKPS1_.exit, label %24

24:                                               ; preds = %19, %.lr.ph39.i.i
  %25 = getelementptr inbounds nuw i8, ptr %.138.i.i, i64 8
  %.not27.i.i = icmp eq ptr %25, %7
  br i1 %.not27.i.i, label %_ZNK14core_hashtableI14obj_hash_entryI4exprE12obj_ptr_hashIS1_E6ptr_eqIS1_EE8containsERKPS1_.exit.thread, label %.lr.ph39.i.i, !llvm.loop !419

_ZNK14core_hashtableI14obj_hash_entryI4exprE12obj_ptr_hashIS1_E6ptr_eqIS1_EE8containsERKPS1_.exit: ; preds = %11, %19
  %26 = getelementptr inbounds nuw i8, ptr %.16.val, i64 8
  %27 = load i32, ptr %26, align 8, !tbaa !23
  %28 = add i32 %27, -1
  %29 = and i32 %28, %3
  %30 = load ptr, ptr %.16.val, align 8, !tbaa !20
  %31 = zext i32 %29 to i64
  %32 = getelementptr inbounds nuw %class.obj_hash_entry, ptr %30, i64 %31
  %33 = zext i32 %27 to i64
  %34 = getelementptr inbounds nuw %class.obj_hash_entry, ptr %30, i64 %33
  %.not35.i.i1 = icmp eq i32 %29, %27
  br i1 %.not35.i.i1, label %.preheader.i.i6, label %.lr.ph.i.i2

.preheader.i.i6:                                  ; preds = %41, %_ZNK14core_hashtableI14obj_hash_entryI4exprE12obj_ptr_hashIS1_E6ptr_eqIS1_EE8containsERKPS1_.exit
  %.not2737.i.i7 = icmp eq i32 %29, 0
  br i1 %.not2737.i.i7, label %_ZNK14core_hashtableI14obj_hash_entryI4exprE12obj_ptr_hashIS1_E6ptr_eqIS1_EE8containsERKPS1_.exit.thread, label %.lr.ph39.i.i8

.lr.ph.i.i2:                                      ; preds = %_ZNK14core_hashtableI14obj_hash_entryI4exprE12obj_ptr_hashIS1_E6ptr_eqIS1_EE8containsERKPS1_.exit, %41
  %.036.i.i3 = phi ptr [ %42, %41 ], [ %32, %_ZNK14core_hashtableI14obj_hash_entryI4exprE12obj_ptr_hashIS1_E6ptr_eqIS1_EE8containsERKPS1_.exit ]
  %35 = load ptr, ptr %.036.i.i3, align 8, !tbaa !17
  %magicptr30.i.i4 = ptrtoint ptr %35 to i64
  switch i64 %magicptr30.i.i4, label %36 [
    i64 0, label %_ZNK14core_hashtableI14obj_hash_entryI4exprE12obj_ptr_hashIS1_E6ptr_eqIS1_EE8containsERKPS1_.exit.thread
    i64 1, label %41
  ]

36:                                               ; preds = %.lr.ph.i.i2
  %37 = getelementptr inbounds nuw i8, ptr %35, i64 12
  %38 = load i32, ptr %37, align 4, !tbaa !226
  %39 = icmp eq i32 %38, %3
  %40 = icmp eq ptr %35, %0
  %or.cond.i.i14 = and i1 %40, %39
  br i1 %or.cond.i.i14, label %_ZNK14core_hashtableI14obj_hash_entryI4exprE12obj_ptr_hashIS1_E6ptr_eqIS1_EE8containsERKPS1_.exit.thread, label %41

41:                                               ; preds = %36, %.lr.ph.i.i2
  %42 = getelementptr inbounds nuw i8, ptr %.036.i.i3, i64 8
  %.not.i.i5 = icmp eq ptr %42, %34
  br i1 %.not.i.i5, label %.preheader.i.i6, label %.lr.ph.i.i2, !llvm.loop !418

.lr.ph39.i.i8:                                    ; preds = %.preheader.i.i6, %49
  %.138.i.i9 = phi ptr [ %50, %49 ], [ %30, %.preheader.i.i6 ]
  %43 = load ptr, ptr %.138.i.i9, align 8, !tbaa !17
  %magicptr32.i.i10 = ptrtoint ptr %43 to i64
  switch i64 %magicptr32.i.i10, label %44 [
    i64 0, label %_ZNK14core_hashtableI14obj_hash_entryI4exprE12obj_ptr_hashIS1_E6ptr_eqIS1_EE8containsERKPS1_.exit.thread
    i64 1, label %49
  ]

44:                                               ; preds = %.lr.ph39.i.i8
  %45 = getelementptr inbounds nuw i8, ptr %43, i64 12
  %46 = load i32, ptr %45, align 4, !tbaa !226
  %47 = icmp eq i32 %46, %3
  %48 = icmp eq ptr %43, %0
  %or.cond31.i.i13 = and i1 %48, %47
  br i1 %or.cond31.i.i13, label %_ZNK14core_hashtableI14obj_hash_entryI4exprE12obj_ptr_hashIS1_E6ptr_eqIS1_EE8containsERKPS1_.exit.thread, label %49

49:                                               ; preds = %44, %.lr.ph39.i.i8
  %50 = getelementptr inbounds nuw i8, ptr %.138.i.i9, i64 8
  %.not27.i.i11 = icmp eq ptr %50, %32
  br i1 %.not27.i.i11, label %_ZNK14core_hashtableI14obj_hash_entryI4exprE12obj_ptr_hashIS1_E6ptr_eqIS1_EE8containsERKPS1_.exit.thread, label %.lr.ph39.i.i8, !llvm.loop !419

_ZNK14core_hashtableI14obj_hash_entryI4exprE12obj_ptr_hashIS1_E6ptr_eqIS1_EE8containsERKPS1_.exit.thread: ; preds = %.lr.ph.i.i, %24, %.lr.ph39.i.i, %36, %.lr.ph.i.i2, %49, %44, %.lr.ph39.i.i8, %.preheader.i.i6, %.preheader.i.i
  %51 = phi i1 [ false, %.preheader.i.i ], [ true, %.preheader.i.i6 ], [ true, %49 ], [ false, %44 ], [ true, %.lr.ph39.i.i8 ], [ true, %.lr.ph.i.i2 ], [ false, %36 ], [ false, %.lr.ph39.i.i ], [ false, %24 ], [ false, %.lr.ph.i.i ]
  ret i1 %51
}